; Function Attrs: mustprogress nounwind uwtable
define dso_local void @_ZN4llvm4json7OStream10valueBeginEv(ptr noundef nonnull align 8 dereferenceable(176) %0) local_unnamed_addr #0 align 2 {
  %2 = load ptr, ptr %0, align 8
  %3 = tail call noundef i64 @_ZNK4llvm15SmallVectorBaseIjE4sizeEv(ptr noundef nonnull align 8 dereferenceable(16) %0) #24
  %4 = getelementptr inbounds %"struct.llvm::json::OStream::State", ptr %2, i64 %3
  %5 = getelementptr inbounds i8, ptr %4, i64 -4
  %6 = load i8, ptr %5, align 4
  %7 = trunc i8 %6 to i1
  br i1 %7, label %8, label %_ZN4llvm11raw_ostreamlsEc.exit

8:                                                ; preds = %1
  %9 = getelementptr inbounds nuw i8, ptr %0, i64 160
  %10 = load ptr, ptr %9, align 8
  %11 = getelementptr inbounds nuw i8, ptr %10, i64 32
  %12 = load ptr, ptr %11, align 8
  %13 = getelementptr inbounds nuw i8, ptr %10, i64 24
  %14 = load ptr, ptr %13, align 8
  %.not.i = icmp ult ptr %12, %14
  br i1 %.not.i, label %17, label %15

15:                                               ; preds = %8
  %16 = tail call noundef nonnull align 8 dereferenceable(48) ptr @_ZN4llvm11raw_ostream5writeEh(ptr noundef nonnull align 8 dereferenceable(48) %10, i8 noundef zeroext 44) #24
  br label %_ZN4llvm11raw_ostreamlsEc.exit

17:                                               ; preds = %8
  %18 = getelementptr inbounds i8, ptr %12, i64 1
  store ptr %18, ptr %11, align 8
  store i8 44, ptr %12, align 1
  br label %_ZN4llvm11raw_ostreamlsEc.exit

_ZN4llvm11raw_ostreamlsEc.exit:                   ; preds = %17, %15, %1
  %19 = load ptr, ptr %0, align 8
  %20 = tail call noundef i64 @_ZNK4llvm15SmallVectorBaseIjE4sizeEv(ptr noundef nonnull align 8 dereferenceable(16) %0) #24
  %21 = getelementptr inbounds %"struct.llvm::json::OStream::State", ptr %19, i64 %20
  %22 = getelementptr inbounds i8, ptr %21, i64 -8
  %23 = load i32, ptr %22, align 4
  %24 = icmp ne i32 %23, 1
  %25 = getelementptr inbounds nuw i8, ptr %0, i64 168
  %26 = load i32, ptr %25, align 8
  %.not.i1 = icmp eq i32 %26, 0
  %or.cond = select i1 %24, i1 true, i1 %.not.i1
  br i1 %or.cond, label %_ZN4llvm4json7OStream7newlineEv.exit, label %27

27:                                               ; preds = %_ZN4llvm11raw_ostreamlsEc.exit
  %28 = getelementptr inbounds nuw i8, ptr %0, i64 160
  %29 = load ptr, ptr %28, align 8
  %30 = tail call noundef nonnull align 8 dereferenceable(48) ptr @_ZN4llvm11raw_ostream5writeEh(ptr noundef nonnull align 8 dereferenceable(48) %29, i8 noundef zeroext 10) #24
  %31 = load ptr, ptr %28, align 8
  %32 = getelementptr inbounds nuw i8, ptr %0, i64 172
  %33 = load i32, ptr %32, align 4
  %34 = tail call noundef nonnull align 8 dereferenceable(48) ptr @_ZN4llvm11raw_ostream6indentEj(ptr noundef nonnull align 8 dereferenceable(48) %31, i32 noundef %33) #24
  br label %_ZN4llvm4json7OStream7newlineEv.exit

_ZN4llvm4json7OStream7newlineEv.exit:             ; preds = %27, %_ZN4llvm11raw_ostreamlsEc.exit
  tail call void @_ZN4llvm4json7OStream12flushCommentEv(ptr noundef nonnull align 8 dereferenceable(176) %0)
  %35 = load ptr, ptr %0, align 8
  %36 = tail call noundef i64 @_ZNK4llvm15SmallVectorBaseIjE4sizeEv(ptr noundef nonnull align 8 dereferenceable(16) %0) #24
  %37 = getelementptr inbounds %"struct.llvm::json::OStream::State", ptr %35, i64 %36
  %38 = getelementptr inbounds i8, ptr %37, i64 -4
  store i8 1, ptr %38, align 4
  ret void
}